target datalayout = "e-m:e-p270:32:32-p271:32:32-p272:64:64-i64:64-i128:128-f80:128-n8:16:32:64-S128"
target triple = "x86_64-pc-linux-gnu"

; Function Attrs: mustprogress uwtable
define dso_local noundef i32 @_ZN4pbrt20rply_vertex_callbackEP15t_ply_argument_(ptr noundef %0) #4 {
  %2 = alloca ptr, align 8
  %3 = alloca ptr, align 8
  %4 = alloca i64, align 8
  %5 = alloca i64, align 8
  %6 = alloca i32, align 4
  %7 = alloca i32, align 4
  store ptr %0, ptr %2, align 8, !tbaa !187
  call void @llvm.lifetime.start.p0(i64 8, ptr %3) #22
  call void @llvm.lifetime.start.p0(i64 8, ptr %4) #22
  call void @llvm.lifetime.start.p0(i64 8, ptr %5) #22
  %8 = load ptr, ptr %2, align 8, !tbaa !187
  %9 = call noundef i32 @_Z26ply_get_argument_user_dataP15t_ply_argument_PPvPl(ptr noundef %8, ptr noundef %3, ptr noundef %5)
  %10 = load ptr, ptr %2, align 8, !tbaa !187
  %11 = call noundef i32 @_Z24ply_get_argument_elementP15t_ply_argument_PP14t_ply_element_Pl(ptr noundef %10, ptr noundef null, ptr noundef %4)
  call void @llvm.lifetime.start.p0(i64 4, ptr %6) #22
  %12 = load i64, ptr %5, align 8, !tbaa !45
  %13 = and i64 %12, 240
  %14 = ashr i64 %13, 4
  %15 = trunc i64 %14 to i32
  store i32 %15, ptr %6, align 4, !tbaa !47
  call void @llvm.lifetime.start.p0(i64 4, ptr %7) #22
  %16 = load i64, ptr %5, align 8, !tbaa !45
  %17 = and i64 %16, 15
  %18 = trunc i64 %17 to i32
  store i32 %18, ptr %7, align 4, !tbaa !47
  %19 = load ptr, ptr %2, align 8, !tbaa !187
  %20 = call noundef double @_Z22ply_get_argument_valueP15t_ply_argument_(ptr noundef %19)
  %21 = fptrunc double %20 to float
  %22 = load ptr, ptr %3, align 8, !tbaa !189
  %23 = load i64, ptr %4, align 8, !tbaa !45
  %24 = load i32, ptr %6, align 4, !tbaa !47
  %25 = sext i32 %24 to i64
  %26 = mul nsw i64 %23, %25
  %27 = load i32, ptr %7, align 4, !tbaa !47
  %28 = sext i32 %27 to i64
  %29 = add nsw i64 %26, %28
  %30 = getelementptr inbounds float, ptr %22, i64 %29
  store float %21, ptr %30, align 4, !tbaa !10
  call void @llvm.lifetime.end.p0(i64 4, ptr %7) #22
  call void @llvm.lifetime.end.p0(i64 4, ptr %6) #22
  call void @llvm.lifetime.end.p0(i64 8, ptr %5) #22
  call void @llvm.lifetime.end.p0(i64 8, ptr %4) #22
  call void @llvm.lifetime.end.p0(i64 8, ptr %3) #22
  ret i32 1
}