; Function Attrs: mustprogress uwtable
define dso_local noundef i32 @_ZN4pbrt20rply_vertex_callbackEP15t_ply_argument_(ptr noundef %0) #5 {
  %2 = alloca ptr, align 8
  %3 = alloca i64, align 8
  %4 = alloca i64, align 8
  call void @llvm.lifetime.start.p0(i64 8, ptr nonnull %2) #24
  call void @llvm.lifetime.start.p0(i64 8, ptr nonnull %3) #24
  call void @llvm.lifetime.start.p0(i64 8, ptr nonnull %4) #24
  %5 = call noundef i32 @_Z26ply_get_argument_user_dataP15t_ply_argument_PPvPl(ptr noundef %0, ptr noundef nonnull %2, ptr noundef nonnull %4)
  %6 = call noundef i32 @_Z24ply_get_argument_elementP15t_ply_argument_PP14t_ply_element_Pl(ptr noundef %0, ptr noundef null, ptr noundef nonnull %3)
  %7 = load i64, ptr %4, align 8, !tbaa !23
  %8 = lshr i64 %7, 4
  %9 = and i64 %8, 15
  %10 = and i64 %7, 15
  %11 = call noundef double @_Z22ply_get_argument_valueP15t_ply_argument_(ptr noundef %0)
  %12 = fptrunc double %11 to float
  %13 = load ptr, ptr %2, align 8, !tbaa !206
  %14 = load i64, ptr %3, align 8, !tbaa !23
  %15 = mul nsw i64 %14, %9
  %16 = getelementptr float, ptr %13, i64 %15
  %17 = getelementptr float, ptr %16, i64 %10
  store float %12, ptr %17, align 4, !tbaa !36
  call void @llvm.lifetime.end.p0(i64 8, ptr nonnull %4) #24
  call void @llvm.lifetime.end.p0(i64 8, ptr nonnull %3) #24
  call void @llvm.lifetime.end.p0(i64 8, ptr nonnull %2) #24
  ret i32 1
}